target datalayout = "e-m:e-p270:32:32-p271:32:32-p272:64:64-i64:64-i128:128-f80:128-n8:16:32:64-S128"
target triple = "x86_64-pc-linux-gnu"

%struct.lua_State = type { %struct.GCRef, i8, i8, i8, i8, %struct.MRef, %struct.GCRef, ptr, ptr, %struct.MRef, %struct.MRef, %struct.GCRef, %struct.GCRef, ptr, i32 }
%struct.MRef = type { i64 }
%struct.GCRef = type { i64 }
%union.TValue = type { i64 }
%struct.global_State = type { ptr, ptr, %struct.GCState, %struct.GCstr, i8, i8, i8, i8, %struct.StrInternState, i32, %struct.GCRef, %struct.SBuf, %union.TValue, %union.TValue, %struct.Node, %union.TValue, %struct.GCupval, i32, i32, ptr, ptr, ptr, i32, i32, %struct.GCRef, %struct.MRef, %struct.MRef, %struct.PRNGState, [39 x %struct.GCRef] }
%struct.GCState = type { i64, i64, i8, i8, i8, i8, i32, %struct.GCRef, %struct.MRef, %struct.GCRef, %struct.GCRef, %struct.GCRef, %struct.GCRef, i64, i64, i32, i32, %struct.MRef }
%struct.GCstr = type { %struct.GCRef, i8, i8, i8, i8, i32, i32, i32 }
%struct.StrInternState = type { ptr, i32, i32, i32, i8, i8, i8, i8, i64 }
%struct.SBuf = type { ptr, ptr, ptr, %struct.MRef }
%struct.Node = type { %union.TValue, %union.TValue, %struct.MRef }
%struct.GCupval = type { %struct.GCRef, i8, i8, i8, i8, %union.anon, %struct.MRef, i32 }
%union.anon = type { %struct.anon.1 }
%struct.anon.1 = type { %struct.GCRef, %struct.GCRef }
%struct.PRNGState = type { [4 x i64] }
%struct.IOFileUD = type { ptr, i32 }

@.str.7 = private unnamed_addr constant [24 x i8] c"store to dead GC object\00", align 1
@.str.14 = private unnamed_addr constant [2 x i8] c"r\00", align 1

; Function Attrs: alwaysinline nounwind uwtable
define internal void @checklivetv(ptr noundef %0, ptr noundef %1, ptr noundef %2) #2 {
  %4 = alloca ptr, align 8
  %5 = alloca ptr, align 8
  %6 = alloca ptr, align 8
  store ptr %0, ptr %4, align 8, !tbaa !4
  store ptr %1, ptr %5, align 8, !tbaa !20
  store ptr %2, ptr %6, align 8, !tbaa !23
  ret void
}

; Function Attrs: alwaysinline nounwind uwtable
define internal void @setgcVraw(ptr noundef %0, ptr noundef %1, i32 noundef %2) #2 {
  %4 = alloca ptr, align 8
  %5 = alloca ptr, align 8
  %6 = alloca i32, align 4
  store ptr %0, ptr %4, align 8, !tbaa !20
  store ptr %1, ptr %5, align 8, !tbaa !55
  store i32 %2, ptr %6, align 4, !tbaa !36
  %7 = load ptr, ptr %5, align 8, !tbaa !55
  %8 = ptrtoint ptr %7 to i64
  %9 = load i32, ptr %6, align 4, !tbaa !36
  %10 = zext i32 %9 to i64
  %11 = shl i64 %10, 47
  %12 = or i64 %8, %11
  %13 = load ptr, ptr %4, align 8, !tbaa !20
  %14 = getelementptr inbounds nuw %struct.GCRef, ptr %13, i32 0, i32 0
  store i64 %12, ptr %14, align 8, !tbaa !22
  ret void
}

; Function Attrs: alwaysinline nounwind uwtable
define internal void @setgcV(ptr noundef %0, ptr noundef %1, ptr noundef %2, i32 noundef %3) #2 {
  %5 = alloca ptr, align 8
  %6 = alloca ptr, align 8
  %7 = alloca ptr, align 8
  %8 = alloca i32, align 4
  store ptr %0, ptr %5, align 8, !tbaa !4
  store ptr %1, ptr %6, align 8, !tbaa !20
  store ptr %2, ptr %7, align 8, !tbaa !55
  store i32 %3, ptr %8, align 4, !tbaa !36
  %9 = load ptr, ptr %6, align 8, !tbaa !20
  %10 = load ptr, ptr %7, align 8, !tbaa !55
  %11 = load i32, ptr %8, align 4, !tbaa !36
  call void @setgcVraw(ptr noundef %9, ptr noundef %10, i32 noundef %11)
  %12 = load ptr, ptr %5, align 8, !tbaa !4
  %13 = load ptr, ptr %6, align 8, !tbaa !20
  call void @checklivetv(ptr noundef %12, ptr noundef %13, ptr noundef @.str.7)
  ret void
}

; Function Attrs: nounwind uwtable
define internal i32 @io_file_lines(ptr noundef %0) #0 {
  %2 = alloca ptr, align 8
  %3 = alloca i32, align 4
  store ptr %0, ptr %2, align 8, !tbaa !4
  call void @llvm.lifetime.start.p0(i64 4, ptr %3) #10
  %4 = load ptr, ptr %2, align 8, !tbaa !4
  %5 = getelementptr inbounds nuw %struct.lua_State, ptr %4, i32 0, i32 8
  %6 = load ptr, ptr %5, align 8, !tbaa !9
  %7 = load ptr, ptr %2, align 8, !tbaa !4
  %8 = getelementptr inbounds nuw %struct.lua_State, ptr %7, i32 0, i32 7
  %9 = load ptr, ptr %8, align 8, !tbaa !35
  %10 = ptrtoint ptr %6 to i64
  %11 = ptrtoint ptr %9 to i64
  %12 = sub i64 %10, %11
  %13 = sdiv exact i64 %12, 8
  %14 = trunc i64 %13 to i32
  store i32 %14, ptr %3, align 4, !tbaa !36
  %15 = load i32, ptr %3, align 4, !tbaa !36
  %16 = icmp sgt i32 %15, 60
  br i1 %16, label %17, label %19

17:                                               ; preds = %1
  %18 = load ptr, ptr %2, align 8, !tbaa !4
  call void @lj_err_caller(ptr noundef %18, i32 noundef 987) #11
  unreachable

19:                                               ; preds = %1
  %20 = load ptr, ptr %2, align 8, !tbaa !4
  %21 = load i32, ptr %3, align 4, !tbaa !36
  call void @lua_pushcclosure(ptr noundef %20, ptr noundef @io_file_iter, i32 noundef %21)
  call void @llvm.lifetime.end.p0(i64 4, ptr %3) #10
  ret i32 1
}

; Function Attrs: alwaysinline nounwind uwtable
define internal void @setudataV(ptr noundef %0, ptr noundef %1, ptr noundef %2) #2 {
  %4 = alloca ptr, align 8
  %5 = alloca ptr, align 8
  %6 = alloca ptr, align 8
  store ptr %0, ptr %4, align 8, !tbaa !4
  store ptr %1, ptr %5, align 8, !tbaa !20
  store ptr %2, ptr %6, align 8, !tbaa !27
  %7 = load ptr, ptr %4, align 8, !tbaa !4
  %8 = load ptr, ptr %5, align 8, !tbaa !20
  %9 = load ptr, ptr %6, align 8, !tbaa !27
  call void @setgcV(ptr noundef %7, ptr noundef %8, ptr noundef %9, i32 noundef -13)
  ret void
}

; Function Attrs: nounwind uwtable
define internal i32 @lj_cf_io_lines(ptr noundef %0) #0 {
  %2 = alloca ptr, align 8
  %3 = alloca ptr, align 8
  store ptr %0, ptr %2, align 8, !tbaa !4
  %4 = load ptr, ptr %2, align 8, !tbaa !4
  %5 = getelementptr inbounds nuw %struct.lua_State, ptr %4, i32 0, i32 7
  %6 = load ptr, ptr %5, align 8, !tbaa !35
  %7 = load ptr, ptr %2, align 8, !tbaa !4
  %8 = getelementptr inbounds nuw %struct.lua_State, ptr %7, i32 0, i32 8
  %9 = load ptr, ptr %8, align 8, !tbaa !9
  %10 = icmp eq ptr %6, %9
  br i1 %10, label %11, label %16

11:                                               ; preds = %1
  %12 = load ptr, ptr %2, align 8, !tbaa !4
  %13 = getelementptr inbounds nuw %struct.lua_State, ptr %12, i32 0, i32 8
  %14 = load ptr, ptr %13, align 8, !tbaa !9
  %15 = getelementptr inbounds nuw %union.TValue, ptr %14, i32 1
  store ptr %15, ptr %13, align 8, !tbaa !9
  store i64 -1, ptr %14, align 8, !tbaa !22
  br label %16

16:                                               ; preds = %11, %1
  %17 = load ptr, ptr %2, align 8, !tbaa !4
  %18 = getelementptr inbounds nuw %struct.lua_State, ptr %17, i32 0, i32 7
  %19 = load ptr, ptr %18, align 8, !tbaa !35
  %20 = load i64, ptr %19, align 8, !tbaa !22
  %21 = icmp eq i64 %20, -1
  br i1 %21, label %42, label %22

22:                                               ; preds = %16
  call void @llvm.lifetime.start.p0(i64 8, ptr %3) #10
  %23 = load ptr, ptr %2, align 8, !tbaa !4
  %24 = call ptr @io_file_open(ptr noundef %23, ptr noundef @.str.14)
  store ptr %24, ptr %3, align 8, !tbaa !25
  %25 = load ptr, ptr %3, align 8, !tbaa !25
  %26 = getelementptr inbounds nuw %struct.IOFileUD, ptr %25, i32 0, i32 1
  store i32 4, ptr %26, align 8, !tbaa !34
  %27 = load ptr, ptr %2, align 8, !tbaa !4
  %28 = getelementptr inbounds nuw %struct.lua_State, ptr %27, i32 0, i32 8
  %29 = load ptr, ptr %28, align 8, !tbaa !9
  %30 = getelementptr inbounds %union.TValue, ptr %29, i32 -1
  store ptr %30, ptr %28, align 8, !tbaa !9
  %31 = load ptr, ptr %2, align 8, !tbaa !4
  %32 = load ptr, ptr %2, align 8, !tbaa !4
  %33 = getelementptr inbounds nuw %struct.lua_State, ptr %32, i32 0, i32 7
  %34 = load ptr, ptr %33, align 8, !tbaa !35
  %35 = load ptr, ptr %2, align 8, !tbaa !4
  %36 = getelementptr inbounds nuw %struct.lua_State, ptr %35, i32 0, i32 8
  %37 = load ptr, ptr %36, align 8, !tbaa !9
  %38 = getelementptr inbounds nuw %struct.GCRef, ptr %37, i32 0, i32 0
  %39 = load i64, ptr %38, align 8, !tbaa !22
  %40 = and i64 %39, 140737488355327
  %41 = inttoptr i64 %40 to ptr
  call void @setudataV(ptr noundef %31, ptr noundef %34, ptr noundef %41)
  call void @llvm.lifetime.end.p0(i64 8, ptr %3) #10
  br label %57

42:                                               ; preds = %16
  %43 = load ptr, ptr %2, align 8, !tbaa !4
  %44 = load ptr, ptr %2, align 8, !tbaa !4
  %45 = getelementptr inbounds nuw %struct.lua_State, ptr %44, i32 0, i32 7
  %46 = load ptr, ptr %45, align 8, !tbaa !35
  %47 = load ptr, ptr %2, align 8, !tbaa !4
  %48 = getelementptr inbounds nuw %struct.lua_State, ptr %47, i32 0, i32 5
  %49 = getelementptr inbounds nuw %struct.MRef, ptr %48, i32 0, i32 0
  %50 = load i64, ptr %49, align 8, !tbaa !18
  %51 = inttoptr i64 %50 to ptr
  %52 = getelementptr inbounds nuw %struct.global_State, ptr %51, i32 0, i32 28
  %53 = getelementptr inbounds [39 x %struct.GCRef], ptr %52, i64 0, i64 36
  %54 = getelementptr inbounds nuw %struct.GCRef, ptr %53, i32 0, i32 0
  %55 = load i64, ptr %54, align 8, !tbaa !19
  %56 = inttoptr i64 %55 to ptr
  call void @setudataV(ptr noundef %43, ptr noundef %46, ptr noundef %56)
  br label %57

57:                                               ; preds = %42, %22
  %58 = load ptr, ptr %2, align 8, !tbaa !4
  %59 = call i32 @io_file_lines(ptr noundef %58)
  ret i32 %59
}