; Function Attrs: nounwind uwtable
define internal noundef i32 @lj_cf_io_lines(ptr noundef %0) #0 {
  %2 = getelementptr inbounds nuw i8, ptr %0, i64 32
  %3 = load ptr, ptr %2, align 8, !tbaa !25
  %4 = getelementptr inbounds nuw i8, ptr %0, i64 40
  %5 = load ptr, ptr %4, align 8, !tbaa !4
  %6 = icmp eq ptr %3, %5
  br i1 %6, label %7, label %9

7:                                                ; preds = %1
  %8 = getelementptr inbounds nuw i8, ptr %5, i64 8
  store ptr %8, ptr %4, align 8, !tbaa !4
  store i64 -1, ptr %5, align 8, !tbaa !14
  %.pre = load ptr, ptr %2, align 8, !tbaa !25
  br label %9

9:                                                ; preds = %7, %1
  %10 = phi ptr [ %.pre, %7 ], [ %3, %1 ]
  %11 = load i64, ptr %10, align 8, !tbaa !14
  %12 = icmp eq i64 %11, -1
  br i1 %12, label %21, label %13

13:                                               ; preds = %9
  %14 = tail call fastcc ptr @io_file_open(ptr noundef nonnull %0, ptr noundef nonnull @.str.14)
  %15 = getelementptr inbounds nuw i8, ptr %14, i64 8
  store i32 4, ptr %15, align 8, !tbaa !22
  %16 = load ptr, ptr %4, align 8, !tbaa !4
  %17 = getelementptr inbounds i8, ptr %16, i64 -8
  store ptr %17, ptr %4, align 8, !tbaa !4
  %18 = load ptr, ptr %2, align 8, !tbaa !25
  %19 = load i64, ptr %17, align 8, !tbaa !14
  %20 = and i64 %19, 140737488355327
  br label %27

21:                                               ; preds = %9
  %22 = getelementptr inbounds nuw i8, ptr %0, i64 16
  %23 = load i64, ptr %22, align 8, !tbaa !23
  %24 = inttoptr i64 %23 to ptr
  %25 = getelementptr inbounds nuw i8, ptr %24, i64 712
  %26 = load i64, ptr %25, align 8, !tbaa !24
  br label %27

27:                                               ; preds = %21, %13
  %.sink15 = phi i64 [ %26, %21 ], [ %20, %13 ]
  %.sink14 = phi ptr [ %10, %21 ], [ %18, %13 ]
  %28 = or i64 %.sink15, -1829587348619264
  store i64 %28, ptr %.sink14, align 8, !tbaa !14
  %29 = load ptr, ptr %4, align 8, !tbaa !4
  %30 = load ptr, ptr %2, align 8, !tbaa !25
  %31 = ptrtoint ptr %29 to i64
  %32 = ptrtoint ptr %30 to i64
  %33 = sub i64 %31, %32
  %34 = lshr exact i64 %33, 3
  %35 = trunc i64 %34 to i32
  %36 = icmp sgt i32 %35, 60
  br i1 %36, label %37, label %io_file_lines.exit

37:                                               ; preds = %27
  tail call void @lj_err_caller(ptr noundef nonnull %0, i32 noundef 987) #11
  unreachable

io_file_lines.exit:                               ; preds = %27
  tail call void @lua_pushcclosure(ptr noundef nonnull %0, ptr noundef nonnull @io_file_iter, i32 noundef %35) #10
  ret i32 1
}